target datalayout = "e-m:e-p270:32:32-p271:32:32-p272:64:64-i64:64-i128:128-f80:128-n8:16:32:64-S128"
target triple = "x86_64-pc-linux-gnu"

%struct.Clobbers = type { [4 x i64] }
%struct.AsmTarget = type { i8, ptr, ptr, [4096 x %struct.AsmRegister], [4096 x %struct.AsmInstruction], i32 }
%struct.AsmRegister = type { ptr, i32, i32, i32 }
%struct.AsmInstruction = type { ptr, [6 x %struct.AsmArgType], i32, %struct.Clobbers }
%struct.AsmArgType = type <{ i64, i32 }>

@asm_target = external global %struct.AsmTarget, align 8

; Function Attrs: nounwind uwtable
define dso_local ptr @asm_instr_by_name(ptr noundef %0) #0 {
  %2 = alloca ptr, align 8
  %3 = alloca ptr, align 8
  %4 = alloca i32, align 4
  %5 = alloca i32, align 4
  %6 = alloca ptr, align 8
  store ptr %0, ptr %3, align 8
  %7 = load ptr, ptr %3, align 8
  %8 = ptrtoint ptr %7 to i64
  %9 = mul i64 %8, 31
  %10 = load ptr, ptr %3, align 8
  %11 = ptrtoint ptr %10 to i64
  %12 = lshr i64 %11, 15
  %13 = xor i64 %9, %12
  %14 = trunc i64 %13 to i32
  store i32 %14, ptr %4, align 4
  %15 = load i32, ptr %4, align 4
  %16 = and i32 %15, 4095
  store i32 %16, ptr %5, align 4
  br label %17

17:                                               ; preds = %34, %1
  %18 = load i32, ptr %5, align 4
  %19 = zext i32 %18 to i64
  %20 = getelementptr inbounds [4096 x %struct.AsmInstruction], ptr getelementptr inbounds (%struct.AsmTarget, ptr @asm_target, i32 0, i32 4), i64 0, i64 %19
  store ptr %20, ptr %6, align 8
  %21 = load ptr, ptr %6, align 8
  %22 = getelementptr inbounds %struct.AsmInstruction, ptr %21, i32 0, i32 0
  %23 = load ptr, ptr %22, align 8
  %24 = load ptr, ptr %3, align 8
  %25 = icmp eq ptr %23, %24
  br i1 %25, label %26, label %28

26:                                               ; preds = %17
  %27 = load ptr, ptr %6, align 8
  store ptr %27, ptr %2, align 8
  br label %38

28:                                               ; preds = %17
  %29 = load ptr, ptr %6, align 8
  %30 = getelementptr inbounds %struct.AsmInstruction, ptr %29, i32 0, i32 0
  %31 = load ptr, ptr %30, align 8
  %32 = icmp eq ptr %31, null
  br i1 %32, label %33, label %34

33:                                               ; preds = %28
  store ptr null, ptr %2, align 8
  br label %38

34:                                               ; preds = %28
  %35 = load i32, ptr %5, align 4
  %36 = add i32 %35, 1
  %37 = and i32 %36, 4095
  store i32 %37, ptr %5, align 4
  br label %17

38:                                               ; preds = %33, %26
  %39 = load ptr, ptr %2, align 8
  ret ptr %39
}