; Function Attrs: nofree norecurse nosync nounwind memory(read, argmem: none, inaccessiblemem: none) uwtable
define dso_local noundef ptr @asm_instr_by_name(ptr noundef %0) local_unnamed_addr #0 {
  %2 = ptrtoint ptr %0 to i64
  %3 = mul i64 %2, 31
  %4 = lshr i64 %2, 15
  %5 = xor i64 %3, %4
  %6 = and i64 %5, 4095
  %7 = getelementptr inbounds %struct.AsmTarget, ptr @asm_target, i64 0, i32 4, i64 %6
  %8 = load ptr, ptr %7, align 8
  %9 = icmp eq ptr %8, %0
  br i1 %9, label %._crit_edge, label %.lr.ph.preheader

.lr.ph.preheader:                                 ; preds = %1
  %10 = trunc i64 %5 to i32
  br label %.lr.ph

11:                                               ; preds = %.lr.ph
  %12 = add i32 %.0912, 1
  %.09 = and i32 %12, 4095
  %13 = zext nneg i32 %.09 to i64
  %14 = getelementptr inbounds %struct.AsmTarget, ptr @asm_target, i64 0, i32 4, i64 %13
  %15 = load ptr, ptr %14, align 8
  %16 = icmp eq ptr %15, %0
  br i1 %16, label %._crit_edge, label %.lr.ph

.lr.ph:                                           ; preds = %.lr.ph.preheader, %11
  %17 = phi ptr [ %15, %11 ], [ %8, %.lr.ph.preheader ]
  %.0912 = phi i32 [ %.09, %11 ], [ %10, %.lr.ph.preheader ]
  %18 = icmp eq ptr %17, null
  br i1 %18, label %._crit_edge, label %11

._crit_edge:                                      ; preds = %11, %.lr.ph, %1
  %.0 = phi ptr [ %7, %1 ], [ null, %.lr.ph ], [ %14, %11 ]
  ret ptr %.0
}